Certificate:
    Data:
        Version: 3 (0x2)
        Serial Number:
            ea:af:14:51:46:84:89:3d:8f:73:35:c4:77:99:c8:d6
        Signature Algorithm: sha256WithRSAEncryption
        Issuer: CN=Easy-RSA CA
        Validity
            Not Before: Sep 25 03:24:23 2024 GMT
            Not After : Dec 29 03:24:23 2026 GMT
        Subject: CN=G2m3SODn803w9Ajmu8Kx5bHsUUeYlsQp
        Subject Public Key Info:
            Public Key Algorithm: rsaEncryption
                RSA Public-Key: (2048 bit)
                Modulus:
                    00:bb:f9:9c:d4:ce:dc:71:a0:45:73:eb:59:59:d1:
                    c2:61:2d:90:7f:cf:3b:17:ca:50:f4:0c:08:5d:da:
                    dc:d5:0d:f6:7f:cf:df:e3:45:e3:30:67:01:9c:50:
                    f7:e7:28:ac:82:7e:22:93:4b:41:ad:eb:d8:7e:36:
                    d1:7c:44:e3:4f:72:f3:bc:e8:39:e3:bf:45:02:d9:
                    66:c6:f6:48:29:04:32:66:a6:d1:23:ab:cb:71:6f:
                    2e:18:6f:80:ca:6f:40:b8:9c:14:23:f3:99:76:04:
                    c3:62:26:e0:09:88:93:83:66:f5:d3:ef:66:77:53:
                    29:03:43:5c:21:32:20:e8:c5:b1:56:3e:03:1c:70:
                    1b:1e:be:ec:8f:dc:59:d4:f0:1d:b7:f3:2f:3c:20:
                    90:ab:cf:e9:68:9f:c3:8e:fd:d8:e8:ac:a1:53:ab:
                    80:02:53:bb:06:6b:62:44:c4:1b:80:3b:ba:ad:c2:
                    83:e7:9a:71:50:79:38:26:0b:ef:c0:db:82:de:e8:
                    a4:b0:9d:04:a1:74:e5:33:14:86:cc:13:a6:8d:2d:
                    7b:a9:4e:af:78:d6:52:45:6a:de:b0:22:b9:bd:9a:
                    2f:17:cc:14:c6:27:32:72:e5:8d:41:68:bc:47:7f:
                    1f:d6:ea:5c:61:f7:1a:e6:77:5c:90:86:23:ec:79:
                    5d:cb
                Exponent: 65537 (0x10001)
        X509v3 extensions:
            X509v3 Basic Constraints: 
                CA:FALSE
            X509v3 Subject Key Identifier: 
                E3:60:57:5E:C8:3F:2F:7E:82:9C:D7:39:2B:96:8F:18:C7:D2:29:69
            X509v3 Authority Key Identifier: 
                keyid:1C:57:FE:4C:C3:8F:ED:A3:E7:59:97:74:72:FC:BD:11:20:E6:90:7F
                DirName:/CN=Easy-RSA CA
                serial:1B:00:0A:A7:1B:17:41:E3:73:C8:D8:47:BE:95:B8:07:FB:60:F2:E9

            X509v3 Extended Key Usage: 
                TLS Web Client Authentication
            X509v3 Key Usage: 
                Digital Signature
    Signature Algorithm: sha256WithRSAEncryption
         2d:22:62:e0:ce:c2:86:97:d0:fb:d8:f4:44:d0:14:76:16:12:
         e2:24:cb:22:a7:f3:86:cd:19:4d:90:ed:87:19:b5:7f:e8:b4:
         42:1a:83:a2:b7:df:7a:b1:bc:79:b3:a4:1f:0b:c6:d1:8b:1e:
         be:ba:1d:a4:0b:6f:77:fa:53:2e:09:a3:13:72:a9:e4:e2:22:
         5d:83:57:56:b9:42:23:93:0e:fc:8d:1e:ae:d1:45:47:3e:56:
         7f:75:bd:b6:4a:b8:7c:ca:21:5e:93:aa:4d:65:85:b4:bd:a9:
         d2:2b:94:ce:53:b1:24:aa:14:1b:ab:e1:fd:09:83:56:f7:35:
         c2:1e:b2:13:a5:b3:d5:4f:40:10:5e:08:4a:d9:61:5a:1a:d7:
         50:43:4d:24:cc:0c:67:44:9f:90:4e:2f:c9:33:35:ce:7f:2a:
         aa:83:6f:ca:53:d3:30:05:06:1a:84:02:49:09:91:98:5c:b3:
         bc:be:4d:0b:cc:82:30:ef:cd:5a:26:21:f6:4f:a2:d9:10:91:
         5d:ea:d8:ac:80:b7:95:89:a5:b6:f8:14:3a:b4:30:17:37:c5:
         c4:8c:b0:d1:50:b8:2d:ae:1f:b2:a5:c2:35:16:33:e4:0c:74:
         f4:b1:fe:d9:20:27:10:7c:d8:5c:52:dd:e9:89:eb:5b:e9:ed:
         bb:1b:c6:3e
-----BEGIN CERTIFICATE-----
MIIDbzCCAlegAwIBAgIRAOqvFFFGhIk9j3M1xHeZyNYwDQYJKoZIhvcNAQELBQAw
FjEUMBIGA1UEAwwLRWFzeS1SU0EgQ0EwHhcNMjQwOTI1MDMyNDIzWhcNMjYxMjI5
MDMyNDIzWjArMSkwJwYDVQQDDCBHMm0zU09EbjgwM3c5QWptdThLeDViSHNVVWVZ
bHNRcDCCASIwDQYJKoZIhvcNAQEBBQADggEPADCCAQoCggEBALv5nNTO3HGgRXPr
WVnRwmEtkH/POxfKUPQMCF3a3NUN9n/P3+NF4zBnAZxQ9+corIJ+IpNLQa3r2H42
0XxE409y87zoOeO/RQLZZsb2SCkEMmam0SOry3FvLhhvgMpvQLicFCPzmXYEw2Im
4AmIk4Nm9dPvZndTKQNDXCEyIOjFsVY+AxxwGx6+7I/cWdTwHbfzLzwgkKvP6Wif
w4792OisoVOrgAJTuwZrYkTEG4A7uq3Cg+eacVB5OCYL78Dbgt7opLCdBKF05TMU
hswTpo0te6lOr3jWUkVq3rAiub2aLxfMFMYnMnLljUFovEd/H9bqXGH3GuZ3XJCG
I+x5XcsCAwEAAaOBojCBnzAJBgNVHRMEAjAAMB0GA1UdDgQWBBTjYFdeyD8vfoKc
1zkrlo8Yx9IpaTBRBgNVHSMESjBIgBQcV/5Mw4/to+dZl3Ry/L0RIOaQf6EapBgw
FjEUMBIGA1UEAwwLRWFzeS1SU0EgQ0GCFBsACqcbF0Hjc8jYR76VuAf7YPLpMBMG
A1UdJQQMMAoGCCsGAQUFBwMCMAsGA1UdDwQEAwIHgDANBgkqhkiG9w0BAQsFAAOC
AQEALSJi4M7ChpfQ+9j0RNAUdhYS4iTLIqfzhs0ZTZDthxm1f+i0QhqDorfferG8
ebOkHwvG0YsevrodpAtvd/pTLgmjE3Kp5OIiXYNXVrlCI5MO/I0ertFFRz5Wf3W9
tkq4fMohXpOqTWWFtL2p0iuUzlOxJKoUG6vh/QmDVvc1wh6yE6Wz1U9AEF4IStlh
WhrXUENNJMwMZ0SfkE4vyTM1zn8qqoNvylPTMAUGGoQCSQmRmFyzvL5NC8yCMO/N
WiYh9k+i2RCRXerYrIC3lYmltvgUOrQwFzfFxIyw0VC4La4fsqXCNRYz5Ax09LH+
2SAnEHzYXFLd6YnrW+ntuxvGPg==
-----END CERTIFICATE-----
