Certificate:
    Data:
        Version: 3 (0x2)
        Serial Number:
            03:f2:19:68:6d:ed:49:c7:11:e4:e1:c2:0b:d5:8d:40
        Signature Algorithm: sha256WithRSAEncryption
        Issuer: CN=Easy-RSA CA
        Validity
            Not Before: Sep 25 03:59:44 2024 GMT
            Not After : Dec 29 03:59:44 2026 GMT
        Subject: CN=g6zjzF32lxntR2Qw6CR3R4X5kPwenQys
        Subject Public Key Info:
            Public Key Algorithm: rsaEncryption
                RSA Public-Key: (2048 bit)
                Modulus:
                    00:b4:df:2a:44:d9:bf:29:d8:a8:34:4e:35:b0:8b:
                    30:45:e4:70:4d:05:80:02:38:80:b2:a1:5b:53:96:
                    3a:e6:ea:e5:d8:a5:5b:ce:de:9c:84:28:e3:5d:e3:
                    8f:7b:be:6e:dd:d1:4f:4b:ab:51:fc:da:fe:a0:d3:
                    e1:39:93:dd:e8:e7:43:e8:d5:16:0f:97:65:24:b4:
                    63:b1:0c:0b:40:76:29:cb:44:89:94:8c:ee:29:9f:
                    d2:b8:3a:ca:66:d9:c5:bf:bd:97:bd:3c:58:54:cb:
                    ba:4a:dd:5c:6c:70:cc:fd:b7:c6:4e:1a:1d:c0:76:
                    a6:f1:92:35:f8:59:5a:83:b1:16:3b:83:59:35:53:
                    30:5d:12:af:00:f0:65:2e:21:c0:bb:4d:51:79:92:
                    df:59:8c:45:f7:cd:3e:f0:8f:a3:9c:2a:b7:2c:63:
                    4a:76:ed:cf:c5:41:2b:23:df:ee:bb:71:1b:af:90:
                    1f:5f:16:eb:bf:56:d5:72:8c:f0:43:a6:ab:4a:4d:
                    9d:da:09:62:45:64:59:53:1c:62:f1:3e:77:a4:3d:
                    fb:02:39:79:df:d1:17:0e:9b:87:bc:82:b4:cf:e8:
                    ad:3d:2e:d7:8c:55:20:9a:b6:a5:b4:08:f2:89:f6:
                    c9:cb:21:5e:19:a6:d1:a6:7f:4e:a6:7e:cd:d5:e0:
                    aa:11
                Exponent: 65537 (0x10001)
        X509v3 extensions:
            X509v3 Basic Constraints: 
                CA:FALSE
            X509v3 Subject Key Identifier: 
                59:3E:3E:06:9D:6F:16:7A:56:99:04:2F:18:3A:EE:0F:A7:BC:E5:81
            X509v3 Authority Key Identifier: 
                keyid:1C:57:FE:4C:C3:8F:ED:A3:E7:59:97:74:72:FC:BD:11:20:E6:90:7F
                DirName:/CN=Easy-RSA CA
                serial:1B:00:0A:A7:1B:17:41:E3:73:C8:D8:47:BE:95:B8:07:FB:60:F2:E9

            X509v3 Extended Key Usage: 
                TLS Web Client Authentication
            X509v3 Key Usage: 
                Digital Signature
    Signature Algorithm: sha256WithRSAEncryption
         57:9d:84:e9:17:0d:97:59:4f:e2:c4:a2:ea:81:2b:97:26:73:
         6f:a9:2f:fc:80:30:24:cc:53:bf:92:0a:23:43:27:eb:f5:dd:
         d7:30:3d:7c:d5:e2:20:c1:a9:ce:5a:9b:38:a2:d2:a6:7b:11:
         c0:7c:0e:d5:60:b9:40:39:9d:92:e3:d8:a7:53:ec:36:e4:09:
         33:6c:e2:1f:12:29:0c:a1:7a:e4:60:ff:e3:45:7a:fa:70:27:
         ff:af:df:17:e0:70:44:c8:7a:40:63:1d:12:38:c5:03:b9:6e:
         33:32:56:9d:8e:07:a9:f5:23:bc:80:ed:d1:84:ec:5b:55:34:
         db:ce:f6:23:9e:58:81:d9:1e:3d:e4:c8:81:d3:74:29:27:50:
         63:5f:28:1a:3b:f6:e7:c6:bb:5c:2b:0b:fe:63:1f:9f:52:0d:
         36:5f:23:b9:e9:81:43:87:5a:fd:d0:f3:4f:4b:02:d0:d4:fc:
         2e:b7:aa:ba:3a:8d:b8:25:39:97:cc:c2:d8:89:7d:66:ae:8e:
         f2:71:a3:c8:f6:d4:e6:87:31:35:af:fd:56:57:51:9d:f6:70:
         ab:fd:98:1a:7c:07:35:4c:bc:77:22:86:be:73:bb:cf:2f:98:
         ee:36:a1:fe:a6:f9:29:c0:18:ff:63:18:cd:69:c8:5c:27:08:
         4a:72:55:e3
-----BEGIN CERTIFICATE-----
MIIDbjCCAlagAwIBAgIQA/IZaG3tSccR5OHCC9WNQDANBgkqhkiG9w0BAQsFADAW
MRQwEgYDVQQDDAtFYXN5LVJTQSBDQTAeFw0yNDA5MjUwMzU5NDRaFw0yNjEyMjkw
MzU5NDRaMCsxKTAnBgNVBAMMIGc2emp6RjMybHhudFIyUXc2Q1IzUjRYNWtQd2Vu
UXlzMIIBIjANBgkqhkiG9w0BAQEFAAOCAQ8AMIIBCgKCAQEAtN8qRNm/KdioNE41
sIswReRwTQWAAjiAsqFbU5Y65url2KVbzt6chCjjXeOPe75u3dFPS6tR/Nr+oNPh
OZPd6OdD6NUWD5dlJLRjsQwLQHYpy0SJlIzuKZ/SuDrKZtnFv72XvTxYVMu6St1c
bHDM/bfGThodwHam8ZI1+Flag7EWO4NZNVMwXRKvAPBlLiHAu01ReZLfWYxF980+
8I+jnCq3LGNKdu3PxUErI9/uu3Ebr5AfXxbrv1bVcozwQ6arSk2d2gliRWRZUxxi
8T53pD37Ajl539EXDpuHvIK0z+itPS7XjFUgmraltAjyifbJyyFeGabRpn9Opn7N
1eCqEQIDAQABo4GiMIGfMAkGA1UdEwQCMAAwHQYDVR0OBBYEFFk+PgadbxZ6VpkE
Lxg67g+nvOWBMFEGA1UdIwRKMEiAFBxX/kzDj+2j51mXdHL8vREg5pB/oRqkGDAW
MRQwEgYDVQQDDAtFYXN5LVJTQSBDQYIUGwAKpxsXQeNzyNhHvpW4B/tg8ukwEwYD
VR0lBAwwCgYIKwYBBQUHAwIwCwYDVR0PBAQDAgeAMA0GCSqGSIb3DQEBCwUAA4IB
AQBXnYTpFw2XWU/ixKLqgSuXJnNvqS/8gDAkzFO/kgojQyfr9d3XMD181eIgwanO
Wps4otKmexHAfA7VYLlAOZ2S49inU+w25AkzbOIfEikMoXrkYP/jRXr6cCf/r98X
4HBEyHpAYx0SOMUDuW4zMladjgep9SO8gO3RhOxbVTTbzvYjnliB2R495MiB03Qp
J1BjXygaO/bnxrtcKwv+Yx+fUg02XyO56YFDh1r90PNPSwLQ1Pwut6q6Oo24JTmX
zMLYiX1mro7ycaPI9tTmhzE1r/1WV1Gd9nCr/ZgafAc1TLx3Ioa+c7vPL5juNqH+
pvkpwBj/YxjNachcJwhKclXj
-----END CERTIFICATE-----
