Certificate:
    Data:
        Version: 3 (0x2)
        Serial Number:
            1c:ef:f1:ff:3d:83:2b:6d:46:c4:c6:9f:ad:11:c6:26
        Signature Algorithm: sha256WithRSAEncryption
        Issuer: CN=Easy-RSA CA
        Validity
            Not Before: Aug  6 09:20:56 2024 GMT
            Not After : Nov  9 09:20:56 2026 GMT
        Subject: CN=MyReq
        Subject Public Key Info:
            Public Key Algorithm: rsaEncryption
                RSA Public-Key: (2048 bit)
                Modulus:
                    00:d7:e1:41:49:5a:19:99:d5:2d:b1:de:d2:5c:b5:
                    dd:a2:46:27:8d:33:c4:43:e8:f7:96:0f:64:c0:b6:
                    5b:e8:d1:73:37:62:38:ec:af:40:a3:7c:07:e3:a3:
                    df:ea:d0:be:a9:a9:23:f4:53:e7:79:ca:26:8d:5e:
                    d5:27:5a:66:61:47:26:bb:68:85:12:9a:05:42:6d:
                    07:5c:02:44:be:ba:44:0b:51:01:7c:e5:ae:ac:36:
                    d9:6f:06:14:5c:c4:27:63:8b:fb:9b:23:68:80:3e:
                    4e:56:75:b8:c0:fc:82:56:04:b1:29:29:26:79:f1:
                    7e:95:1b:d1:03:d0:c6:f5:f3:b2:ab:6a:05:cd:50:
                    ad:28:2a:bf:f8:11:53:d2:73:9b:d8:3a:47:76:09:
                    ba:ab:5d:8f:42:ff:07:ad:6f:53:75:2f:49:d9:4d:
                    d3:b5:6b:c2:ce:5d:54:16:16:47:63:75:3c:67:f0:
                    4c:0d:ca:89:ff:0f:06:e7:19:62:11:54:91:01:1a:
                    78:67:27:8f:00:f7:28:81:a5:bf:2b:21:1a:5a:80:
                    77:ba:07:a8:03:fd:15:90:7c:12:6f:f6:52:af:1e:
                    70:00:6c:04:8b:f6:12:bb:56:3e:ee:3f:32:8b:96:
                    1f:74:c8:e4:13:ef:59:6a:f1:e5:cb:bf:f1:53:f8:
                    a6:35
                Exponent: 65537 (0x10001)
        X509v3 extensions:
            X509v3 Basic Constraints: 
                CA:FALSE
            X509v3 Subject Key Identifier: 
                BB:B3:B1:F5:3F:56:5A:0A:A1:8E:BD:14:1E:81:63:C6:E2:ED:86:54
            X509v3 Authority Key Identifier: 
                keyid:1C:57:FE:4C:C3:8F:ED:A3:E7:59:97:74:72:FC:BD:11:20:E6:90:7F
                DirName:/CN=Easy-RSA CA
                serial:1B:00:0A:A7:1B:17:41:E3:73:C8:D8:47:BE:95:B8:07:FB:60:F2:E9

            X509v3 Extended Key Usage: 
                TLS Web Server Authentication
            X509v3 Key Usage: 
                Digital Signature, Key Encipherment
            X509v3 Subject Alternative Name: 
                DNS:MyReq
    Signature Algorithm: sha256WithRSAEncryption
         3f:04:ec:07:5d:d2:05:31:40:5a:d1:40:bd:d7:f1:90:0b:c5:
         79:49:b0:c7:a6:56:01:2d:6b:68:c3:a3:dc:7f:c7:5e:92:2f:
         1e:ec:91:ce:59:5c:81:a3:b2:72:58:50:5a:56:73:f3:d8:90:
         fb:08:a8:73:58:10:82:a1:dd:f6:44:4e:67:2d:f0:8d:76:49:
         3d:34:90:c5:60:66:1a:2d:28:9b:3c:57:99:df:68:10:be:a5:
         7e:11:24:44:a6:13:2b:1b:0f:35:36:3f:70:8e:04:11:8f:4d:
         5c:fb:38:14:76:f8:ce:69:5f:b6:de:fc:49:08:cd:5f:05:2f:
         a3:eb:b1:db:3c:a5:62:e3:98:9b:39:8e:1b:7a:39:4a:6a:5d:
         8e:bd:f2:3b:88:b4:28:e2:5c:de:14:da:73:d9:cb:96:ca:ba:
         ac:b0:e4:84:cb:0e:7c:44:03:3a:a6:73:fc:34:74:7b:5d:64:
         b6:b0:a8:47:55:55:d4:9b:29:07:cd:75:d3:77:82:96:c7:19:
         a5:de:50:39:86:de:af:71:60:e4:fa:33:a4:e4:31:ec:8e:eb:
         10:b9:3d:39:17:5d:44:ef:34:f8:a4:12:20:47:03:a9:8c:16:
         4f:66:fa:46:79:94:6e:ca:be:d3:b0:c6:92:f8:95:e6:2b:a7:
         cc:f1:4a:11
-----BEGIN CERTIFICATE-----
MIIDZTCCAk2gAwIBAgIQHO/x/z2DK21GxMafrRHGJjANBgkqhkiG9w0BAQsFADAW
MRQwEgYDVQQDDAtFYXN5LVJTQSBDQTAeFw0yNDA4MDYwOTIwNTZaFw0yNjExMDkw
OTIwNTZaMBAxDjAMBgNVBAMMBU15UmVxMIIBIjANBgkqhkiG9w0BAQEFAAOCAQ8A
MIIBCgKCAQEA1+FBSVoZmdUtsd7SXLXdokYnjTPEQ+j3lg9kwLZb6NFzN2I47K9A
o3wH46Pf6tC+qakj9FPnecomjV7VJ1pmYUcmu2iFEpoFQm0HXAJEvrpEC1EBfOWu
rDbZbwYUXMQnY4v7myNogD5OVnW4wPyCVgSxKSkmefF+lRvRA9DG9fOyq2oFzVCt
KCq/+BFT0nOb2DpHdgm6q12PQv8HrW9TdS9J2U3TtWvCzl1UFhZHY3U8Z/BMDcqJ
/w8G5xliEVSRARp4ZyePAPcogaW/KyEaWoB3ugeoA/0VkHwSb/ZSrx5wAGwEi/YS
u1Y+7j8yi5YfdMjkE+9ZavHly7/xU/imNQIDAQABo4G0MIGxMAkGA1UdEwQCMAAw
HQYDVR0OBBYEFLuzsfU/VloKoY69FB6BY8bi7YZUMFEGA1UdIwRKMEiAFBxX/kzD
j+2j51mXdHL8vREg5pB/oRqkGDAWMRQwEgYDVQQDDAtFYXN5LVJTQSBDQYIUGwAK
pxsXQeNzyNhHvpW4B/tg8ukwEwYDVR0lBAwwCgYIKwYBBQUHAwEwCwYDVR0PBAQD
AgWgMBAGA1UdEQQJMAeCBU15UmVxMA0GCSqGSIb3DQEBCwUAA4IBAQA/BOwHXdIF
MUBa0UC91/GQC8V5SbDHplYBLWtow6Pcf8deki8e7JHOWVyBo7JyWFBaVnPz2JD7
CKhzWBCCod32RE5nLfCNdkk9NJDFYGYaLSibPFeZ32gQvqV+ESREphMrGw81Nj9w
jgQRj01c+zgUdvjOaV+23vxJCM1fBS+j67HbPKVi45ibOY4bejlKal2OvfI7iLQo
4lzeFNpz2cuWyrqssOSEyw58RAM6pnP8NHR7XWS2sKhHVVXUmykHzXXTd4KWxxml
3lA5ht6vcWDk+jOk5DHsjusQuT05F11E7zT4pBIgRwOpjBZPZvpGeZRuyr7TsMaS
+JXmK6fM8UoR
-----END CERTIFICATE-----
