Certificate:
    Data:
        Version: 3 (0x2)
        Serial Number:
            3b:6a:d2:47:97:72:6b:6d:28:d2:bf:47:38:dc:6d:68
        Signature Algorithm: sha256WithRSAEncryption
        Issuer: CN=Easy-RSA CA
        Validity
            Not Before: Sep 25 03:30:45 2024 GMT
            Not After : Dec 29 03:30:45 2026 GMT
        Subject: CN=XX07qyLyaVTe5yMlvPoDwPzBFlENI5YD
        Subject Public Key Info:
            Public Key Algorithm: rsaEncryption
                RSA Public-Key: (2048 bit)
                Modulus:
                    00:d2:75:ef:12:77:3d:b9:d6:1f:8b:81:ef:aa:ef:
                    7e:ec:98:e7:06:09:a4:42:79:bd:7b:17:8e:7f:0f:
                    41:72:65:8f:5d:9e:c0:0d:d5:8f:c2:47:e3:1c:98:
                    64:8f:73:0e:4a:bc:bc:63:7a:80:18:4e:23:58:80:
                    2e:e1:5f:5e:94:76:36:c9:50:42:92:8b:7e:27:03:
                    42:b7:83:79:85:7f:31:b3:8b:2d:e1:a7:4f:0b:b0:
                    82:53:76:1b:78:ed:c6:ec:01:e6:a7:5a:5e:36:a9:
                    9d:f1:1a:e0:de:0a:ff:c5:a8:82:4a:98:6f:ce:ff:
                    b8:78:df:44:a9:34:53:dc:ed:91:33:f7:25:dd:ff:
                    6d:54:06:8f:b0:6f:1f:67:63:1d:23:eb:6f:c2:2c:
                    52:07:d5:03:07:10:2e:6f:01:cd:ee:33:fb:b7:63:
                    c6:8c:9f:63:0e:09:78:cd:4a:90:0f:9c:2c:e0:1a:
                    22:b7:5a:2b:3a:25:42:ad:a5:ac:2b:94:e1:91:25:
                    a0:40:8f:b6:59:37:c1:1d:19:8c:4c:3e:f0:d3:aa:
                    bf:50:40:42:9b:3b:ce:b1:2c:4f:e9:f3:c6:36:fd:
                    5a:bc:88:37:f5:20:95:16:eb:6c:28:15:46:fc:b2:
                    cd:d2:b8:ff:a9:be:f6:88:3f:20:86:31:93:2f:4f:
                    ad:85
                Exponent: 65537 (0x10001)
        X509v3 extensions:
            X509v3 Basic Constraints: 
                CA:FALSE
            X509v3 Subject Key Identifier: 
                C7:22:56:E3:A3:D9:85:2C:DF:D7:A9:54:5B:EF:8B:76:D3:54:0F:6C
            X509v3 Authority Key Identifier: 
                keyid:1C:57:FE:4C:C3:8F:ED:A3:E7:59:97:74:72:FC:BD:11:20:E6:90:7F
                DirName:/CN=Easy-RSA CA
                serial:1B:00:0A:A7:1B:17:41:E3:73:C8:D8:47:BE:95:B8:07:FB:60:F2:E9

            X509v3 Extended Key Usage: 
                TLS Web Client Authentication
            X509v3 Key Usage: 
                Digital Signature
    Signature Algorithm: sha256WithRSAEncryption
         a3:0a:71:40:56:56:5d:c9:5b:03:b3:d2:62:3a:15:f5:6d:c0:
         40:70:d0:63:0c:a6:c5:31:06:76:a0:13:ce:29:59:aa:31:b4:
         45:de:ee:d9:2d:e9:ed:c7:37:2a:12:ed:0e:d9:7b:85:ba:d4:
         23:03:d8:25:9e:2f:7d:9b:72:6d:2e:7c:76:9a:b7:6a:fb:43:
         fb:0a:26:42:d0:b4:84:2c:0a:f8:24:a1:0f:9c:d5:7d:ad:7b:
         f7:71:3a:54:06:98:5c:ed:64:c4:1b:7e:e2:5b:9b:91:e1:8d:
         4f:12:2e:c4:58:72:1e:98:8b:c9:38:7b:05:33:11:d3:0a:26:
         4f:b4:bc:eb:2d:41:f2:f6:43:7c:40:8d:64:31:0b:69:ef:25:
         6d:bf:c3:44:8a:65:a4:69:c6:55:a5:7f:af:b1:20:7f:ac:57:
         b8:fc:ba:f4:61:ad:fc:e2:68:6e:7d:3e:de:c2:97:e9:53:ce:
         81:92:d9:e4:04:7b:d7:44:48:e2:04:ce:70:50:97:0e:da:78:
         d9:bc:f0:07:d8:2e:a8:0b:ce:96:cb:5e:a4:e2:ef:78:b1:64:
         14:92:c6:f6:b9:e2:d2:5a:a1:50:30:64:e1:39:19:7b:99:ec:
         0c:9c:6e:66:c7:5a:e7:8f:75:a6:9b:95:74:62:ea:98:60:f7:
         ab:bd:92:3d
-----BEGIN CERTIFICATE-----
MIIDbjCCAlagAwIBAgIQO2rSR5dya20o0r9HONxtaDANBgkqhkiG9w0BAQsFADAW
MRQwEgYDVQQDDAtFYXN5LVJTQSBDQTAeFw0yNDA5MjUwMzMwNDVaFw0yNjEyMjkw
MzMwNDVaMCsxKTAnBgNVBAMMIFhYMDdxeUx5YVZUZTV5TWx2UG9Ed1B6QkZsRU5J
NVlEMIIBIjANBgkqhkiG9w0BAQEFAAOCAQ8AMIIBCgKCAQEA0nXvEnc9udYfi4Hv
qu9+7JjnBgmkQnm9exeOfw9BcmWPXZ7ADdWPwkfjHJhkj3MOSry8Y3qAGE4jWIAu
4V9elHY2yVBCkot+JwNCt4N5hX8xs4st4adPC7CCU3YbeO3G7AHmp1peNqmd8Rrg
3gr/xaiCSphvzv+4eN9EqTRT3O2RM/cl3f9tVAaPsG8fZ2MdI+tvwixSB9UDBxAu
bwHN7jP7t2PGjJ9jDgl4zUqQD5ws4Boit1orOiVCraWsK5ThkSWgQI+2WTfBHRmM
TD7w06q/UEBCmzvOsSxP6fPGNv1avIg39SCVFutsKBVG/LLN0rj/qb72iD8ghjGT
L0+thQIDAQABo4GiMIGfMAkGA1UdEwQCMAAwHQYDVR0OBBYEFMciVuOj2YUs39ep
VFvvi3bTVA9sMFEGA1UdIwRKMEiAFBxX/kzDj+2j51mXdHL8vREg5pB/oRqkGDAW
MRQwEgYDVQQDDAtFYXN5LVJTQSBDQYIUGwAKpxsXQeNzyNhHvpW4B/tg8ukwEwYD
VR0lBAwwCgYIKwYBBQUHAwIwCwYDVR0PBAQDAgeAMA0GCSqGSIb3DQEBCwUAA4IB
AQCjCnFAVlZdyVsDs9JiOhX1bcBAcNBjDKbFMQZ2oBPOKVmqMbRF3u7ZLentxzcq
Eu0O2XuFutQjA9glni99m3JtLnx2mrdq+0P7CiZC0LSELAr4JKEPnNV9rXv3cTpU
Bphc7WTEG37iW5uR4Y1PEi7EWHIemIvJOHsFMxHTCiZPtLzrLUHy9kN8QI1kMQtp
7yVtv8NEimWkacZVpX+vsSB/rFe4/Lr0Ya384mhufT7ewpfpU86BktnkBHvXREji
BM5wUJcO2njZvPAH2C6oC86Wy16k4u94sWQUksb2ueLSWqFQMGThORl7mewMnG5m
x1rnj3Wmm5V0YuqYYPervZI9
-----END CERTIFICATE-----
