Certificate:
    Data:
        Version: 3 (0x2)
        Serial Number:
            ce:fb:96:70:68:59:dd:11:59:4e:3c:05:1d:66:31:f5
        Signature Algorithm: sha256WithRSAEncryption
        Issuer: CN=Easy-RSA CA
        Validity
            Not Before: Sep 25 03:48:46 2024 GMT
            Not After : Dec 29 03:48:46 2026 GMT
        Subject: CN=hpkHQcUBFrOrVaIzz1pSFC11rylcQtiR
        Subject Public Key Info:
            Public Key Algorithm: rsaEncryption
                RSA Public-Key: (2048 bit)
                Modulus:
                    00:bb:66:3a:60:c0:2c:07:3d:57:9c:50:65:58:85:
                    f8:4b:ad:53:8f:6c:72:8c:2b:72:ed:4c:52:03:17:
                    07:90:13:f6:1b:3f:95:57:cd:1e:38:2a:d8:18:0e:
                    69:e6:1f:5f:80:58:7c:3d:83:fb:ac:a0:4f:08:08:
                    c3:3c:1a:ad:7c:92:66:45:c0:01:b7:5a:39:0a:bd:
                    d7:3d:6e:bc:75:68:6d:58:c3:8e:6c:ce:87:ac:c5:
                    4d:bc:98:e3:3d:cc:7c:57:26:63:4a:8a:4a:ac:0b:
                    d2:d3:25:80:53:94:13:99:7c:b4:4f:09:02:64:9c:
                    3b:57:95:7c:08:89:b9:5c:d9:79:c4:ee:2b:1b:45:
                    3a:c3:10:a4:c4:95:d5:ca:32:0d:31:e5:7c:50:51:
                    71:b2:ac:dd:a7:35:aa:3a:83:e4:f4:1f:f6:08:34:
                    0b:ff:b7:ee:60:e1:be:88:85:3c:e1:ca:0b:eb:24:
                    99:22:f3:9f:25:82:ff:a6:e4:20:b7:e4:55:bd:57:
                    2c:a4:d9:a2:9e:82:b0:4a:a5:e5:fc:8c:96:a4:82:
                    2e:5f:ea:5a:77:5c:1c:cb:57:e8:e6:49:68:91:a4:
                    9f:8f:77:a8:1b:86:c2:f9:3d:c0:d1:fe:87:06:f9:
                    2a:bb:45:60:04:7f:3f:ff:39:d1:05:51:1a:4d:20:
                    2e:a3
                Exponent: 65537 (0x10001)
        X509v3 extensions:
            X509v3 Basic Constraints: 
                CA:FALSE
            X509v3 Subject Key Identifier: 
                A6:B8:30:B6:F7:B8:15:FA:E8:F1:61:B3:AF:DF:8A:69:B3:60:05:52
            X509v3 Authority Key Identifier: 
                keyid:1C:57:FE:4C:C3:8F:ED:A3:E7:59:97:74:72:FC:BD:11:20:E6:90:7F
                DirName:/CN=Easy-RSA CA
                serial:1B:00:0A:A7:1B:17:41:E3:73:C8:D8:47:BE:95:B8:07:FB:60:F2:E9

            X509v3 Extended Key Usage: 
                TLS Web Client Authentication
            X509v3 Key Usage: 
                Digital Signature
    Signature Algorithm: sha256WithRSAEncryption
         54:08:b2:3a:44:82:c0:91:ef:e8:be:22:fb:df:45:eb:e9:e4:
         63:1a:fc:cd:d2:1a:fa:28:87:41:e1:53:b1:a9:60:55:43:6a:
         7e:0b:77:ab:6b:ff:70:70:87:10:aa:87:2b:04:6a:34:07:91:
         55:28:0b:21:2f:a8:9f:97:91:7f:aa:7c:44:0f:ae:48:42:bc:
         bf:d9:de:f1:be:aa:21:ac:44:82:59:a9:88:9b:4a:9e:93:f2:
         44:81:e6:27:6c:5b:89:5b:8e:5f:dd:3c:2a:01:f6:72:69:f3:
         1d:42:a5:45:5c:59:9d:63:85:1f:ec:52:3a:e6:a8:f0:ab:53:
         60:11:4c:a0:9d:f2:10:4c:8b:8b:4a:86:67:fe:ef:7c:61:76:
         96:31:c8:b8:ba:7d:12:e2:7b:a7:92:1b:51:5b:be:85:ea:4c:
         0f:6d:5b:83:bb:1a:38:32:32:34:55:09:c7:ce:61:62:87:ef:
         7e:b9:a8:72:6d:f7:d8:c6:66:ac:36:d4:ce:27:d7:a2:25:25:
         7c:af:93:21:de:26:8c:56:85:5b:50:1a:a2:ec:8c:bf:b6:50:
         1f:d5:5d:31:f5:91:a1:85:23:db:cf:c9:55:82:1e:9e:24:bb:
         33:bd:c4:f9:aa:55:89:4c:11:47:3b:c5:9a:9a:bf:25:84:4f:
         90:b5:73:75
-----BEGIN CERTIFICATE-----
MIIDbzCCAlegAwIBAgIRAM77lnBoWd0RWU48BR1mMfUwDQYJKoZIhvcNAQELBQAw
FjEUMBIGA1UEAwwLRWFzeS1SU0EgQ0EwHhcNMjQwOTI1MDM0ODQ2WhcNMjYxMjI5
MDM0ODQ2WjArMSkwJwYDVQQDDCBocGtIUWNVQkZyT3JWYUl6ejFwU0ZDMTFyeWxj
UXRpUjCCASIwDQYJKoZIhvcNAQEBBQADggEPADCCAQoCggEBALtmOmDALAc9V5xQ
ZViF+EutU49scowrcu1MUgMXB5AT9hs/lVfNHjgq2BgOaeYfX4BYfD2D+6ygTwgI
wzwarXySZkXAAbdaOQq91z1uvHVobVjDjmzOh6zFTbyY4z3MfFcmY0qKSqwL0tMl
gFOUE5l8tE8JAmScO1eVfAiJuVzZecTuKxtFOsMQpMSV1coyDTHlfFBRcbKs3ac1
qjqD5PQf9gg0C/+37mDhvoiFPOHKC+skmSLznyWC/6bkILfkVb1XLKTZop6CsEql
5fyMlqSCLl/qWndcHMtX6OZJaJGkn493qBuGwvk9wNH+hwb5KrtFYAR/P/850QVR
Gk0gLqMCAwEAAaOBojCBnzAJBgNVHRMEAjAAMB0GA1UdDgQWBBSmuDC297gV+ujx
YbOv34pps2AFUjBRBgNVHSMESjBIgBQcV/5Mw4/to+dZl3Ry/L0RIOaQf6EapBgw
FjEUMBIGA1UEAwwLRWFzeS1SU0EgQ0GCFBsACqcbF0Hjc8jYR76VuAf7YPLpMBMG
A1UdJQQMMAoGCCsGAQUFBwMCMAsGA1UdDwQEAwIHgDANBgkqhkiG9w0BAQsFAAOC
AQEAVAiyOkSCwJHv6L4i+99F6+nkYxr8zdIa+iiHQeFTsalgVUNqfgt3q2v/cHCH
EKqHKwRqNAeRVSgLIS+on5eRf6p8RA+uSEK8v9ne8b6qIaxEglmpiJtKnpPyRIHm
J2xbiVuOX908KgH2cmnzHUKlRVxZnWOFH+xSOuao8KtTYBFMoJ3yEEyLi0qGZ/7v
fGF2ljHIuLp9EuJ7p5IbUVu+hepMD21bg7saODIyNFUJx85hYofvfrmocm332MZm
rDbUzifXoiUlfK+TId4mjFaFW1AaouyMv7ZQH9VdMfWRoYUj28/JVYIeniS7M73E
+apViUwRRzvFmpq/JYRPkLVzdQ==
-----END CERTIFICATE-----
